target datalayout = "e-m:e-p270:32:32-p271:32:32-p272:64:64-i64:64-i128:128-f80:128-n8:16:32:64-S128"
target triple = "x86_64-pc-linux-gnu"

%struct.nameData = type { [64 x i8] }
%struct.ScanKeyData = type { i32, i16, i16, i32, i32, %struct.FmgrInfo, i64 }
%struct.FmgrInfo = type { ptr, i32, i16, i8, i8, i8, ptr, ptr, ptr }
%struct.FormData_pg_constraint = type { i32, %struct.nameData, i32, i8, i8, i8, i8, i8, i32, i32, i32, i32, i32, i8, i8, i8, i8, i16, i8, i8 }
%struct.HeapTupleData = type { i32, %struct.ItemPointerData, i32, ptr }
%struct.ItemPointerData = type { %struct.BlockIdData, i16 }
%struct.BlockIdData = type { i16, i16 }
%struct.HeapTupleHeaderData = type { %union.anon, %struct.ItemPointerData, i16, i16, i8, [0 x i8] }
%union.anon = type { %struct.HeapTupleFields }
%struct.HeapTupleFields = type { i32, i32, %union.anon.0 }
%union.anon.0 = type { i32 }

; Function Attrs: inlinehint nounwind uwtable
define internal ptr @GETSTRUCT(ptr noundef %0) #3 {
  %2 = alloca ptr, align 8
  store ptr %0, ptr %2, align 8
  %3 = load ptr, ptr %2, align 8
  %4 = getelementptr inbounds nuw %struct.HeapTupleData, ptr %3, i32 0, i32 3
  %5 = load ptr, ptr %4, align 8
  %6 = load ptr, ptr %2, align 8
  %7 = getelementptr inbounds nuw %struct.HeapTupleData, ptr %6, i32 0, i32 3
  %8 = load ptr, ptr %7, align 8
  %9 = getelementptr inbounds nuw %struct.HeapTupleHeaderData, ptr %8, i32 0, i32 4
  %10 = load i8, ptr %9, align 2
  %11 = zext i8 %10 to i32
  %12 = sext i32 %11 to i64
  %13 = getelementptr inbounds i8, ptr %5, i64 %12
  ret ptr %13
}

; Function Attrs: inlinehint nounwind uwtable
define internal i64 @ObjectIdGetDatum(i32 noundef %0) #3 {
  %2 = alloca i32, align 4
  store i32 %0, ptr %2, align 4
  %3 = load i32, ptr %2, align 4
  %4 = zext i32 %3 to i64
  ret i64 %4
}

; Function Attrs: nounwind uwtable
define dso_local ptr @findDomainNotNullConstraint(i32 noundef %0) #0 {
  %2 = alloca i32, align 4
  %3 = alloca ptr, align 8
  %4 = alloca ptr, align 8
  %5 = alloca ptr, align 8
  %6 = alloca ptr, align 8
  %7 = alloca %struct.ScanKeyData, align 8
  %8 = alloca ptr, align 8
  %9 = alloca i32, align 4
  store i32 %0, ptr %2, align 4
  call void @llvm.lifetime.start.p0(i64 8, ptr %3) #9
  call void @llvm.lifetime.start.p0(i64 8, ptr %4) #9
  call void @llvm.lifetime.start.p0(i64 8, ptr %5) #9
  store ptr null, ptr %5, align 8
  call void @llvm.lifetime.start.p0(i64 8, ptr %6) #9
  call void @llvm.lifetime.start.p0(i64 72, ptr %7) #9
  %10 = call ptr @table_open(i32 noundef 2606, i32 noundef 1)
  store ptr %10, ptr %3, align 8
  %11 = load i32, ptr %2, align 4
  %12 = call i64 @ObjectIdGetDatum(i32 noundef %11)
  call void @ScanKeyInit(ptr noundef %7, i16 noundef signext 10, i16 noundef zeroext 3, i32 noundef 184, i64 noundef %12)
  %13 = load ptr, ptr %3, align 8
  %14 = call ptr @systable_beginscan(ptr noundef %13, i32 noundef 2665, i1 noundef zeroext true, ptr noundef null, i32 noundef 1, ptr noundef %7)
  store ptr %14, ptr %6, align 8
  br label %15

15:                                               ; preds = %37, %1
  %16 = load ptr, ptr %6, align 8
  %17 = call ptr @systable_getnext(ptr noundef %16)
  store ptr %17, ptr %4, align 8
  %18 = icmp ne ptr %17, null
  br i1 %18, label %19, label %39

19:                                               ; preds = %15
  call void @llvm.lifetime.start.p0(i64 8, ptr %8) #9
  %20 = load ptr, ptr %4, align 8
  %21 = call ptr @GETSTRUCT(ptr noundef %20)
  store ptr %21, ptr %8, align 8
  %22 = load ptr, ptr %8, align 8
  %23 = getelementptr inbounds nuw %struct.FormData_pg_constraint, ptr %22, i32 0, i32 3
  %24 = load i8, ptr %23, align 4
  %25 = sext i8 %24 to i32
  %26 = icmp ne i32 %25, 110
  br i1 %26, label %27, label %28

27:                                               ; preds = %19
  store i32 2, ptr %9, align 4
  br label %37, !llvm.loop !20

28:                                               ; preds = %19
  %29 = load ptr, ptr %8, align 8
  %30 = getelementptr inbounds nuw %struct.FormData_pg_constraint, ptr %29, i32 0, i32 7
  %31 = load i8, ptr %30, align 4, !range !13, !noundef !14
  %32 = trunc i8 %31 to i1
  br i1 %32, label %34, label %33

33:                                               ; preds = %28
  store i32 2, ptr %9, align 4
  br label %37, !llvm.loop !20

34:                                               ; preds = %28
  %35 = load ptr, ptr %4, align 8
  %36 = call ptr @heap_copytuple(ptr noundef %35)
  store ptr %36, ptr %5, align 8
  store i32 3, ptr %9, align 4
  br label %37

37:                                               ; preds = %34, %33, %27
  call void @llvm.lifetime.end.p0(i64 8, ptr %8) #9
  %38 = load i32, ptr %9, align 4
  switch i32 %38, label %43 [
    i32 2, label %15
    i32 3, label %39
  ]

39:                                               ; preds = %37, %15
  %40 = load ptr, ptr %6, align 8
  call void @systable_endscan(ptr noundef %40)
  %41 = load ptr, ptr %3, align 8
  call void @table_close(ptr noundef %41, i32 noundef 1)
  %42 = load ptr, ptr %5, align 8
  store i32 1, ptr %9, align 4
  call void @llvm.lifetime.end.p0(i64 72, ptr %7) #9
  call void @llvm.lifetime.end.p0(i64 8, ptr %6) #9
  call void @llvm.lifetime.end.p0(i64 8, ptr %5) #9
  call void @llvm.lifetime.end.p0(i64 8, ptr %4) #9
  call void @llvm.lifetime.end.p0(i64 8, ptr %3) #9
  ret ptr %42

43:                                               ; preds = %37
  unreachable
}