; Function Attrs: nounwind uwtable
define dso_local ptr @findDomainNotNullConstraint(i32 noundef %0) local_unnamed_addr #0 {
  %2 = alloca %struct.ScanKeyData, align 8
  call void @llvm.lifetime.start.p0(i64 72, ptr nonnull %2) #12
  %3 = tail call ptr @table_open(i32 noundef 2606, i32 noundef 1) #12
  %4 = zext i32 %0 to i64
  call void @ScanKeyInit(ptr noundef nonnull %2, i16 noundef signext 10, i16 noundef zeroext 3, i32 noundef 184, i64 noundef %4) #12
  %5 = call ptr @systable_beginscan(ptr noundef %3, i32 noundef 2665, i1 noundef zeroext true, ptr noundef null, i32 noundef 1, ptr noundef nonnull %2) #12
  %6 = call ptr @systable_getnext(ptr noundef %5) #12
  %.not18 = icmp eq ptr %6, null
  br i1 %.not18, label %.loopexit, label %.lr.ph

.lr.ph:                                           ; preds = %1, %20
  %7 = phi ptr [ %21, %20 ], [ %6, %1 ]
  %8 = getelementptr i8, ptr %7, i64 16
  %.val = load ptr, ptr %8, align 8
  %9 = getelementptr inbounds nuw i8, ptr %.val, i64 22
  %10 = load i8, ptr %9, align 2
  %11 = zext i8 %10 to i64
  %12 = getelementptr inbounds nuw i8, ptr %.val, i64 %11
  %13 = getelementptr inbounds nuw i8, ptr %12, i64 72
  %14 = load i8, ptr %13, align 4
  %.not12 = icmp eq i8 %14, 110
  br i1 %.not12, label %15, label %20, !llvm.loop !18

15:                                               ; preds = %.lr.ph
  %16 = getelementptr inbounds nuw i8, ptr %12, i64 76
  %17 = load i8, ptr %16, align 4, !range !16, !noundef !17
  %18 = trunc nuw i8 %17 to i1
  br i1 %18, label %.thread, label %20, !llvm.loop !18

.thread:                                          ; preds = %15
  %19 = call ptr @heap_copytuple(ptr noundef nonnull %7) #12
  br label %.loopexit

20:                                               ; preds = %15, %.lr.ph
  %21 = call ptr @systable_getnext(ptr noundef %5) #12
  %.not = icmp eq ptr %21, null
  br i1 %.not, label %.loopexit, label %.lr.ph

.loopexit:                                        ; preds = %20, %1, %.thread
  %.1 = phi ptr [ %19, %.thread ], [ null, %1 ], [ null, %20 ]
  call void @systable_endscan(ptr noundef %5) #12
  call void @table_close(ptr noundef %3, i32 noundef 1) #12
  call void @llvm.lifetime.end.p0(i64 72, ptr nonnull %2) #12
  ret ptr %.1
}